target datalayout = "e-m:e-p270:32:32-p271:32:32-p272:64:64-i64:64-i128:128-f80:128-n8:16:32:64-S128"
target triple = "x86_64-pc-linux-gnu"

%struct.DdNode = type { i32, i32, ptr, %union.anon, i64 }
%union.anon = type { %struct.DdChildren }
%struct.DdChildren = type { ptr, ptr }
%struct.DdManager = type { %struct.DdNode, ptr, ptr, ptr, ptr, ptr, ptr, ptr, i32, i32, double, double, double, i32, i32, i32, i32, i32, i32, ptr, ptr, %struct.DdSubtable, i32, i32, i32, i32, i32, i32, i32, double, i32, i32, i32, ptr, i64, double, i32, ptr, ptr, ptr, ptr, ptr, ptr, ptr, i32, ptr, ptr, ptr, ptr, ptr, ptr, i32, i32, i32, double, i32, i32, i32, i32, double, double, i32, i32, i32, i32, i32, i32, i32, i32, i32, ptr, ptr, i32, i32, i32, i32, i32, i32, ptr, ptr, ptr, ptr, ptr, ptr, ptr, ptr, i32, i64, i64, i64, i32, i64, i64, double, double, double, double, double, double, i32, ptr, ptr, i64 }
%struct.DdSubtable = type { ptr, i32, i32, i32, i32, i32, i32, i32, i32, i32, i32, i32 }

; Function Attrs: nounwind uwtable
define void @Cudd_IterDerefBdd(ptr noundef %0, ptr noundef %1) #0 {
  %3 = alloca ptr, align 8
  %4 = alloca ptr, align 8
  %5 = alloca ptr, align 8
  %6 = alloca i32, align 4
  %7 = alloca ptr, align 8
  %8 = alloca i32, align 4
  %9 = alloca i32, align 4
  store ptr %0, ptr %3, align 8, !tbaa !12
  store ptr %1, ptr %4, align 8, !tbaa !3
  call void @llvm.lifetime.start.p0(i64 8, ptr %5) #4
  call void @llvm.lifetime.start.p0(i64 4, ptr %6) #4
  call void @llvm.lifetime.start.p0(i64 8, ptr %7) #4
  %10 = load ptr, ptr %3, align 8, !tbaa !12
  %11 = getelementptr inbounds nuw %struct.DdManager, ptr %10, i32 0, i32 33
  %12 = load ptr, ptr %11, align 8, !tbaa !14
  store ptr %12, ptr %7, align 8, !tbaa !28
  call void @llvm.lifetime.start.p0(i64 4, ptr %8) #4
  store i32 1, ptr %8, align 4, !tbaa !29
  call void @llvm.lifetime.start.p0(i64 4, ptr %9) #4
  %13 = load ptr, ptr %3, align 8, !tbaa !12
  %14 = getelementptr inbounds nuw %struct.DdManager, ptr %13, i32 0, i32 23
  %15 = load i32, ptr %14, align 4, !tbaa !30
  %16 = load ptr, ptr %3, align 8, !tbaa !12
  %17 = getelementptr inbounds nuw %struct.DdManager, ptr %16, i32 0, i32 25
  %18 = load i32, ptr %17, align 4, !tbaa !31
  %19 = sub i32 %15, %18
  store i32 %19, ptr %9, align 4, !tbaa !29
  %20 = load i32, ptr %9, align 4, !tbaa !29
  %21 = load ptr, ptr %3, align 8, !tbaa !12
  %22 = getelementptr inbounds nuw %struct.DdManager, ptr %21, i32 0, i32 99
  %23 = load i32, ptr %22, align 8, !tbaa !32
  %24 = icmp ugt i32 %20, %23
  br i1 %24, label %25, label %29

25:                                               ; preds = %2
  %26 = load i32, ptr %9, align 4, !tbaa !29
  %27 = load ptr, ptr %3, align 8, !tbaa !12
  %28 = getelementptr inbounds nuw %struct.DdManager, ptr %27, i32 0, i32 99
  store i32 %26, ptr %28, align 8, !tbaa !32
  br label %29

29:                                               ; preds = %25, %2
  %30 = load ptr, ptr %4, align 8, !tbaa !3
  %31 = ptrtoint ptr %30 to i64
  %32 = and i64 %31, -2
  %33 = inttoptr i64 %32 to ptr
  store ptr %33, ptr %5, align 8, !tbaa !3
  br label %34

34:                                               ; preds = %92, %29
  %35 = load ptr, ptr %5, align 8, !tbaa !3
  %36 = getelementptr inbounds nuw %struct.DdNode, ptr %35, i32 0, i32 1
  %37 = load i32, ptr %36, align 4, !tbaa !8
  %38 = icmp eq i32 %37, 1
  br i1 %38, label %39, label %80

39:                                               ; preds = %34
  %40 = load ptr, ptr %5, align 8, !tbaa !3
  %41 = getelementptr inbounds nuw %struct.DdNode, ptr %40, i32 0, i32 1
  store i32 0, ptr %41, align 4, !tbaa !8
  %42 = load ptr, ptr %3, align 8, !tbaa !12
  %43 = getelementptr inbounds nuw %struct.DdManager, ptr %42, i32 0, i32 25
  %44 = load i32, ptr %43, align 4, !tbaa !31
  %45 = add i32 %44, 1
  store i32 %45, ptr %43, align 4, !tbaa !31
  %46 = load ptr, ptr %3, align 8, !tbaa !12
  %47 = getelementptr inbounds nuw %struct.DdManager, ptr %46, i32 0, i32 37
  %48 = load ptr, ptr %47, align 8, !tbaa !35
  %49 = load ptr, ptr %5, align 8, !tbaa !3
  %50 = getelementptr inbounds nuw %struct.DdNode, ptr %49, i32 0, i32 0
  %51 = load i32, ptr %50, align 8, !tbaa !33
  %52 = zext i32 %51 to i64
  %53 = getelementptr inbounds nuw i32, ptr %48, i64 %52
  %54 = load i32, ptr %53, align 4, !tbaa !29
  store i32 %54, ptr %6, align 4, !tbaa !29
  %55 = load ptr, ptr %5, align 8, !tbaa !3
  %56 = getelementptr inbounds nuw %struct.DdNode, ptr %55, i32 0, i32 3
  %57 = getelementptr inbounds nuw %struct.DdChildren, ptr %56, i32 0, i32 1
  %58 = load ptr, ptr %57, align 8, !tbaa !36
  %59 = ptrtoint ptr %58 to i64
  %60 = and i64 %59, -2
  %61 = inttoptr i64 %60 to ptr
  %62 = load ptr, ptr %7, align 8, !tbaa !28
  %63 = load i32, ptr %8, align 4, !tbaa !29
  %64 = add nsw i32 %63, 1
  store i32 %64, ptr %8, align 4, !tbaa !29
  %65 = sext i32 %63 to i64
  %66 = getelementptr inbounds ptr, ptr %62, i64 %65
  store ptr %61, ptr %66, align 8, !tbaa !3
  %67 = load ptr, ptr %3, align 8, !tbaa !12
  %68 = getelementptr inbounds nuw %struct.DdManager, ptr %67, i32 0, i32 19
  %69 = load ptr, ptr %68, align 8, !tbaa !37
  %70 = load i32, ptr %6, align 4, !tbaa !29
  %71 = sext i32 %70 to i64
  %72 = getelementptr inbounds %struct.DdSubtable, ptr %69, i64 %71
  %73 = getelementptr inbounds nuw %struct.DdSubtable, ptr %72, i32 0, i32 5
  %74 = load i32, ptr %73, align 8, !tbaa !38
  %75 = add i32 %74, 1
  store i32 %75, ptr %73, align 8, !tbaa !38
  %76 = load ptr, ptr %5, align 8, !tbaa !3
  %77 = getelementptr inbounds nuw %struct.DdNode, ptr %76, i32 0, i32 3
  %78 = getelementptr inbounds nuw %struct.DdChildren, ptr %77, i32 0, i32 0
  %79 = load ptr, ptr %78, align 8, !tbaa !36
  store ptr %79, ptr %5, align 8, !tbaa !3
  br label %91

80:                                               ; preds = %34
  %81 = load ptr, ptr %5, align 8, !tbaa !3
  %82 = getelementptr inbounds nuw %struct.DdNode, ptr %81, i32 0, i32 1
  %83 = load i32, ptr %82, align 4, !tbaa !8
  %84 = add i32 %83, -1
  store i32 %84, ptr %82, align 4, !tbaa !8
  %85 = load ptr, ptr %7, align 8, !tbaa !28
  %86 = load i32, ptr %8, align 4, !tbaa !29
  %87 = add nsw i32 %86, -1
  store i32 %87, ptr %8, align 4, !tbaa !29
  %88 = sext i32 %87 to i64
  %89 = getelementptr inbounds ptr, ptr %85, i64 %88
  %90 = load ptr, ptr %89, align 8, !tbaa !3
  store ptr %90, ptr %5, align 8, !tbaa !3
  br label %91

91:                                               ; preds = %80, %39
  br label %92

92:                                               ; preds = %91
  %93 = load i32, ptr %8, align 4, !tbaa !29
  %94 = icmp ne i32 %93, 0
  br i1 %94, label %34, label %95, !llvm.loop !41

95:                                               ; preds = %92
  call void @llvm.lifetime.end.p0(i64 4, ptr %9) #4
  call void @llvm.lifetime.end.p0(i64 4, ptr %8) #4
  call void @llvm.lifetime.end.p0(i64 8, ptr %7) #4
  call void @llvm.lifetime.end.p0(i64 4, ptr %6) #4
  call void @llvm.lifetime.end.p0(i64 8, ptr %5) #4
  ret void
}

; Function Attrs: nounwind uwtable
define void @cuddClearDeathRow(ptr noundef %0) #0 {
  %2 = alloca ptr, align 8
  %3 = alloca i32, align 4
  store ptr %0, ptr %2, align 8, !tbaa !12
  call void @llvm.lifetime.start.p0(i64 4, ptr %3) #4
  store i32 0, ptr %3, align 4, !tbaa !29
  br label %4

4:                                                ; preds = %35, %1
  %5 = load i32, ptr %3, align 4, !tbaa !29
  %6 = load ptr, ptr %2, align 8, !tbaa !12
  %7 = getelementptr inbounds nuw %struct.DdManager, ptr %6, i32 0, i32 51
  %8 = load i32, ptr %7, align 8, !tbaa !72
  %9 = icmp slt i32 %5, %8
  br i1 %9, label %10, label %38

10:                                               ; preds = %4
  %11 = load ptr, ptr %2, align 8, !tbaa !12
  %12 = getelementptr inbounds nuw %struct.DdManager, ptr %11, i32 0, i32 50
  %13 = load ptr, ptr %12, align 8, !tbaa !42
  %14 = load i32, ptr %3, align 4, !tbaa !29
  %15 = sext i32 %14 to i64
  %16 = getelementptr inbounds ptr, ptr %13, i64 %15
  %17 = load ptr, ptr %16, align 8, !tbaa !3
  %18 = icmp eq ptr %17, null
  br i1 %18, label %19, label %20

19:                                               ; preds = %10
  br label %38

20:                                               ; preds = %10
  %21 = load ptr, ptr %2, align 8, !tbaa !12
  %22 = load ptr, ptr %2, align 8, !tbaa !12
  %23 = getelementptr inbounds nuw %struct.DdManager, ptr %22, i32 0, i32 50
  %24 = load ptr, ptr %23, align 8, !tbaa !42
  %25 = load i32, ptr %3, align 4, !tbaa !29
  %26 = sext i32 %25 to i64
  %27 = getelementptr inbounds ptr, ptr %24, i64 %26
  %28 = load ptr, ptr %27, align 8, !tbaa !3
  call void @Cudd_IterDerefBdd(ptr noundef %21, ptr noundef %28)
  %29 = load ptr, ptr %2, align 8, !tbaa !12
  %30 = getelementptr inbounds nuw %struct.DdManager, ptr %29, i32 0, i32 50
  %31 = load ptr, ptr %30, align 8, !tbaa !42
  %32 = load i32, ptr %3, align 4, !tbaa !29
  %33 = sext i32 %32 to i64
  %34 = getelementptr inbounds ptr, ptr %31, i64 %33
  store ptr null, ptr %34, align 8, !tbaa !3
  br label %35

35:                                               ; preds = %20
  %36 = load i32, ptr %3, align 4, !tbaa !29
  %37 = add nsw i32 %36, 1
  store i32 %37, ptr %3, align 4, !tbaa !29
  br label %4, !llvm.loop !73

38:                                               ; preds = %19, %4
  %39 = load ptr, ptr %2, align 8, !tbaa !12
  %40 = getelementptr inbounds nuw %struct.DdManager, ptr %39, i32 0, i32 52
  store i32 0, ptr %40, align 4, !tbaa !43
  call void @llvm.lifetime.end.p0(i64 4, ptr %3) #4
  ret void
}