; Function Attrs: nofree norecurse nosync nounwind memory(readwrite, inaccessiblemem: none) uwtable
define void @cuddClearDeathRow(ptr noundef captures(none) %0) local_unnamed_addr #1 {
  %2 = getelementptr inbounds nuw i8, ptr %0, i64 424
  %3 = load i32, ptr %2, align 8, !tbaa !47
  %4 = icmp sgt i32 %3, 0
  br i1 %4, label %.lr.ph, label %._crit_edge

.lr.ph:                                           ; preds = %1
  %5 = getelementptr inbounds nuw i8, ptr %0, i64 416
  %6 = load ptr, ptr %5, align 8, !tbaa !39
  %7 = getelementptr inbounds nuw i8, ptr %0, i64 280
  %8 = getelementptr inbounds nuw i8, ptr %0, i64 228
  %9 = getelementptr inbounds nuw i8, ptr %0, i64 236
  %10 = getelementptr inbounds nuw i8, ptr %0, i64 728
  %11 = getelementptr inbounds nuw i8, ptr %0, i64 312
  %12 = getelementptr inbounds nuw i8, ptr %0, i64 152
  %wide.trip.count = zext nneg i32 %3 to i64
  br label %13

13:                                               ; preds = %.lr.ph, %Cudd_IterDerefBdd.exit
  %indvars.iv = phi i64 [ 0, %.lr.ph ], [ %indvars.iv.next, %Cudd_IterDerefBdd.exit ]
  %14 = getelementptr inbounds nuw ptr, ptr %6, i64 %indvars.iv
  %15 = load ptr, ptr %14, align 8, !tbaa !33
  %16 = icmp eq ptr %15, null
  br i1 %16, label %._crit_edge, label %17

17:                                               ; preds = %13
  %18 = load ptr, ptr %7, align 8, !tbaa !11
  %19 = load i32, ptr %8, align 4, !tbaa !25
  %20 = load i32, ptr %9, align 4, !tbaa !26
  %21 = sub i32 %19, %20
  %22 = load i32, ptr %10, align 8, !tbaa !27
  %23 = icmp ugt i32 %21, %22
  br i1 %23, label %24, label %25

24:                                               ; preds = %17
  store i32 %21, ptr %10, align 8, !tbaa !27
  br label %25

25:                                               ; preds = %24, %17
  %26 = ptrtoint ptr %15 to i64
  %27 = and i64 %26, -2
  %28 = inttoptr i64 %27 to ptr
  br label %29

29:                                               ; preds = %60, %25
  %30 = phi i32 [ %20, %25 ], [ %61, %60 ]
  %.022.i = phi i32 [ 1, %25 ], [ %.123.i, %60 ]
  %.0.i = phi ptr [ %28, %25 ], [ %.1.i, %60 ]
  %31 = getelementptr inbounds nuw i8, ptr %.0.i, i64 4
  %32 = load i32, ptr %31, align 4, !tbaa !3
  %33 = icmp eq i32 %32, 1
  br i1 %33, label %34, label %55

34:                                               ; preds = %29
  store i32 0, ptr %31, align 4, !tbaa !3
  %35 = add i32 %30, 1
  store i32 %35, ptr %9, align 4, !tbaa !26
  %36 = load ptr, ptr %11, align 8, !tbaa !30
  %37 = load i32, ptr %.0.i, align 8, !tbaa !28
  %38 = zext i32 %37 to i64
  %39 = getelementptr inbounds nuw i32, ptr %36, i64 %38
  %40 = load i32, ptr %39, align 4, !tbaa !31
  %41 = getelementptr inbounds nuw i8, ptr %.0.i, i64 16
  %42 = getelementptr inbounds nuw i8, ptr %.0.i, i64 24
  %43 = load ptr, ptr %42, align 8, !tbaa !32
  %44 = ptrtoint ptr %43 to i64
  %45 = and i64 %44, -2
  %46 = inttoptr i64 %45 to ptr
  %47 = add nsw i32 %.022.i, 1
  %48 = sext i32 %.022.i to i64
  %49 = getelementptr inbounds ptr, ptr %18, i64 %48
  store ptr %46, ptr %49, align 8, !tbaa !33
  %50 = load ptr, ptr %12, align 8, !tbaa !34
  %51 = sext i32 %40 to i64
  %52 = getelementptr inbounds %struct.DdSubtable, ptr %50, i64 %51, i32 5
  %53 = load i32, ptr %52, align 8, !tbaa !35
  %54 = add i32 %53, 1
  store i32 %54, ptr %52, align 8, !tbaa !35
  br label %60

55:                                               ; preds = %29
  %56 = add i32 %32, -1
  store i32 %56, ptr %31, align 4, !tbaa !3
  %57 = add nsw i32 %.022.i, -1
  %58 = sext i32 %57 to i64
  %59 = getelementptr inbounds ptr, ptr %18, i64 %58
  br label %60

60:                                               ; preds = %55, %34
  %61 = phi i32 [ %35, %34 ], [ %30, %55 ]
  %.123.i = phi i32 [ %47, %34 ], [ %57, %55 ]
  %.1.in.i = phi ptr [ %41, %34 ], [ %59, %55 ]
  %.1.i = load ptr, ptr %.1.in.i, align 8, !tbaa !32
  %.not.i = icmp eq i32 %.123.i, 0
  br i1 %.not.i, label %Cudd_IterDerefBdd.exit, label %29, !llvm.loop !38

Cudd_IterDerefBdd.exit:                           ; preds = %60
  store ptr null, ptr %14, align 8, !tbaa !33
  %indvars.iv.next = add nuw nsw i64 %indvars.iv, 1
  %exitcond.not = icmp eq i64 %indvars.iv.next, %wide.trip.count
  br i1 %exitcond.not, label %._crit_edge, label %13, !llvm.loop !48

._crit_edge:                                      ; preds = %Cudd_IterDerefBdd.exit, %13, %1
  %62 = getelementptr inbounds nuw i8, ptr %0, i64 428
  store i32 0, ptr %62, align 4, !tbaa !40
  ret void
}